target datalayout = "e-m:e-p270:32:32-p271:32:32-p272:64:64-i64:64-i128:128-f80:128-n8:16:32:64-S128"
target triple = "x86_64-pc-linux-gnu"

%struct.Curl_easy = type { i32, i64, i64, ptr, %struct.Curl_llist_node, %struct.Curl_llist_node, i32, i32, %struct.Curl_message, %struct.easy_pollset, %struct.Names, ptr, ptr, ptr, ptr, %struct.SingleRequest, %struct.UserDefined, ptr, ptr, ptr, %struct.Progress, %struct.UrlState, ptr, %struct.PureInfo, %struct.curl_tlssessioninfo }
%struct.Curl_llist_node = type { ptr, ptr, ptr, ptr }
%struct.Curl_message = type { %struct.Curl_llist_node, %struct.CURLMsg }
%struct.CURLMsg = type { i32, ptr, %union.anon }
%union.anon = type { ptr }
%struct.easy_pollset = type { [5 x i32], i32, [5 x i8] }
%struct.Names = type { ptr, i32 }
%struct.SingleRequest = type <{ i64, i64, i64, i64, %struct.curltime, i32, i32, i32, i32, i64, i32, i32, i8, i8, [2 x i8], i32, ptr, ptr, %struct.bufq, i64, i64, ptr, ptr, %union.anon.0, ptr, i8, i32, [3 x i8] }>
%struct.curltime = type { i64, i32 }
%struct.bufq = type { ptr, ptr, ptr, ptr, i64, i64, i64, i32 }
%union.anon.0 = type { ptr }
%struct.UserDefined = type <{ ptr, ptr, ptr, ptr, ptr, ptr, i64, i64, i64, ptr, ptr, i64, ptr, ptr, ptr, ptr, ptr, ptr, ptr, ptr, ptr, ptr, ptr, ptr, ptr, ptr, ptr, ptr, ptr, ptr, ptr, ptr, ptr, ptr, ptr, i64, i64, i64, i64, i64, i64, i64, i64, i64, ptr, ptr, %struct.curl_mimepart, ptr, ptr, ptr, i64, %struct.ssl_config_data, %struct.ssl_config_data, ptr, i16, i8, i8, %struct.ssl_general_config, i32, i32, i32, [4 x i8], ptr, ptr, i64, i32, i8, i8, i8, i8, ptr, ptr, ptr, i32, [4 x i8], [74 x ptr], [8 x ptr], i32, i32, i32, [4 x i8], ptr, i32, [4 x i8], ptr, ptr, ptr, ptr, ptr, i32, i32, i32, i32, i32, i32, i32, i32, i64, ptr, ptr, i64, ptr, i64, ptr, ptr, ptr, ptr, i32, i16, i16, i16, i8, i8, i8, i8, i8, i8, i8, i8, i64, [6 x i8] }>
%struct.curl_mimepart = type { ptr, ptr, i32, i32, ptr, ptr, ptr, ptr, ptr, ptr, ptr, ptr, ptr, ptr, ptr, i64, %struct.mime_state, ptr, %struct.mime_encoder_state, i64 }
%struct.mime_state = type { i32, ptr, i64 }
%struct.mime_encoder_state = type { i64, i64, i64, [256 x i8] }
%struct.ssl_config_data = type { %struct.ssl_primary_config, i64, ptr, ptr, ptr, ptr, ptr, ptr, ptr, i16 }
%struct.ssl_primary_config = type { ptr, ptr, ptr, ptr, ptr, ptr, ptr, ptr, ptr, ptr, ptr, ptr, ptr, ptr, i8, i32, i8, i8 }
%struct.ssl_general_config = type { i32 }
%struct.Progress = type { i64, %struct.pgrs_dir, %struct.pgrs_dir, i64, i64, i32, i32, i64, i64, i64, i64, i64, i64, i64, i64, i64, %struct.curltime, %struct.curltime, %struct.curltime, %struct.curltime, %struct.curltime, [6 x i64], [6 x %struct.curltime], i32, i8 }
%struct.pgrs_dir = type { i64, i64, i64, %struct.pgrs_measure }
%struct.pgrs_measure = type { %struct.curltime, i64 }
%struct.UrlState = type { %struct.curltime, i64, i64, %struct.dynbuf, ptr, i64, ptr, i32, i32, i32, ptr, i32, i64, i32, ptr, %struct.digestdata, %struct.digestdata, %struct.auth, %struct.auth, %struct.Curl_async, ptr, i8, %struct.curltime, %struct.Curl_tree, %struct.Curl_llist, [15 x %struct.time_node], ptr, ptr, i64, i64, i64, i64, [32 x i8], i64, ptr, ptr, ptr, %struct.urlpieces, ptr, ptr, ptr, ptr, ptr, i64, %struct.dynbuf, %struct.Curl_llist, [2 x %struct.curl_header], ptr, i32, ptr, ptr, %struct.store_netrc, %struct.dynamically_allocated_data, i8, i8, i8, i8, i32 }
%struct.digestdata = type { ptr, ptr, ptr, ptr, ptr, ptr, i32, i8, i8 }
%struct.auth = type { i64, i64, i64, i8 }
%struct.Curl_async = type { ptr, ptr, ptr, ptr, i32, i32, i8 }
%struct.Curl_tree = type { ptr, ptr, ptr, ptr, %struct.curltime, ptr }
%struct.time_node = type { %struct.Curl_llist_node, %struct.curltime, i32 }
%struct.urlpieces = type { ptr, ptr, ptr, ptr, ptr, ptr, ptr, ptr }
%struct.dynbuf = type { ptr, i64, i64, i64 }
%struct.Curl_llist = type { ptr, ptr, ptr, i64 }
%struct.curl_header = type { ptr, ptr, i64, i64, i32, ptr }
%struct.store_netrc = type { %struct.dynbuf, ptr, i8 }
%struct.dynamically_allocated_data = type { ptr, ptr, ptr, ptr, ptr, ptr, ptr, ptr, ptr, ptr, ptr, ptr, ptr, ptr }
%struct.PureInfo = type { i32, i32, i32, i64, i64, i64, i64, i64, i64, i64, ptr, ptr, i64, i32, %struct.ip_quadruple, i32, ptr, i32, %struct.curl_certinfo, i32, i8 }
%struct.ip_quadruple = type { [46 x i8], [46 x i8], i32, i32 }
%struct.curl_certinfo = type { i32, ptr }
%struct.curl_tlssessioninfo = type { i32, ptr }
%struct.doh_probes = type { ptr, [2 x %struct.doh_probe], i32, i32, ptr }
%struct.doh_probe = type { i64, i32, [512 x i8], i64, %struct.dynbuf }

@Curl_cfree = external global ptr, align 8

; Function Attrs: nounwind uwtable
define hidden void @Curl_doh_close(ptr noundef %0) #0 {
  %2 = alloca ptr, align 8
  %3 = alloca ptr, align 8
  %4 = alloca ptr, align 8
  %5 = alloca i64, align 8
  %6 = alloca i64, align 8
  store ptr %0, ptr %2, align 8, !tbaa !3
  call void @llvm.lifetime.start.p0(i64 8, ptr %3) #7
  %7 = load ptr, ptr %2, align 8, !tbaa !3
  %8 = getelementptr inbounds nuw %struct.Curl_easy, ptr %7, i32 0, i32 15
  %9 = getelementptr inbounds nuw %struct.SingleRequest, ptr %8, i32 0, i32 24
  %10 = load ptr, ptr %9, align 8, !tbaa !83
  store ptr %10, ptr %3, align 8, !tbaa !84
  %11 = load ptr, ptr %3, align 8, !tbaa !84
  %12 = icmp ne ptr %11, null
  br i1 %12, label %13, label %71

13:                                               ; preds = %1
  %14 = load ptr, ptr %2, align 8, !tbaa !3
  %15 = getelementptr inbounds nuw %struct.Curl_easy, ptr %14, i32 0, i32 11
  %16 = load ptr, ptr %15, align 8, !tbaa !94
  %17 = icmp ne ptr %16, null
  br i1 %17, label %18, label %71

18:                                               ; preds = %13
  call void @llvm.lifetime.start.p0(i64 8, ptr %4) #7
  call void @llvm.lifetime.start.p0(i64 8, ptr %5) #7
  call void @llvm.lifetime.start.p0(i64 8, ptr %6) #7
  store i64 0, ptr %6, align 8, !tbaa !85
  br label %19

19:                                               ; preds = %67, %18
  %20 = load i64, ptr %6, align 8, !tbaa !85
  %21 = icmp ult i64 %20, 2
  br i1 %21, label %22, label %70

22:                                               ; preds = %19
  %23 = load ptr, ptr %3, align 8, !tbaa !84
  %24 = getelementptr inbounds nuw %struct.doh_probes, ptr %23, i32 0, i32 1
  %25 = load i64, ptr %6, align 8, !tbaa !85
  %26 = getelementptr inbounds nuw [2 x %struct.doh_probe], ptr %24, i64 0, i64 %25
  %27 = getelementptr inbounds nuw %struct.doh_probe, ptr %26, i32 0, i32 0
  %28 = load i64, ptr %27, align 8, !tbaa !86
  store i64 %28, ptr %5, align 8, !tbaa !85
  %29 = load i64, ptr %5, align 8, !tbaa !85
  %30 = icmp slt i64 %29, 0
  br i1 %30, label %31, label %32

31:                                               ; preds = %22
  br label %67

32:                                               ; preds = %22
  %33 = load ptr, ptr %3, align 8, !tbaa !84
  %34 = getelementptr inbounds nuw %struct.doh_probes, ptr %33, i32 0, i32 1
  %35 = load i64, ptr %6, align 8, !tbaa !85
  %36 = getelementptr inbounds nuw [2 x %struct.doh_probe], ptr %34, i64 0, i64 %35
  %37 = getelementptr inbounds nuw %struct.doh_probe, ptr %36, i32 0, i32 0
  store i64 -1, ptr %37, align 8, !tbaa !86
  br label %38

38:                                               ; preds = %32
  br label %39

39:                                               ; preds = %38
  br label %40

40:                                               ; preds = %39
  %41 = load ptr, ptr %2, align 8, !tbaa !3
  %42 = getelementptr inbounds nuw %struct.Curl_easy, ptr %41, i32 0, i32 11
  %43 = load ptr, ptr %42, align 8, !tbaa !94
  %44 = icmp ne ptr %43, null
  br i1 %44, label %45, label %51

45:                                               ; preds = %40
  %46 = load ptr, ptr %2, align 8, !tbaa !3
  %47 = getelementptr inbounds nuw %struct.Curl_easy, ptr %46, i32 0, i32 11
  %48 = load ptr, ptr %47, align 8, !tbaa !94
  %49 = load i64, ptr %5, align 8, !tbaa !85
  %50 = call ptr @Curl_multi_get_handle(ptr noundef %48, i64 noundef %49)
  br label %52

51:                                               ; preds = %40
  br label %52

52:                                               ; preds = %51, %45
  %53 = phi ptr [ %50, %45 ], [ null, %51 ]
  store ptr %53, ptr %4, align 8, !tbaa !3
  %54 = load ptr, ptr %4, align 8, !tbaa !3
  %55 = icmp ne ptr %54, null
  br i1 %55, label %60, label %56

56:                                               ; preds = %52
  br label %57

57:                                               ; preds = %56
  br label %58

58:                                               ; preds = %57
  br label %59

59:                                               ; preds = %58
  br label %67

60:                                               ; preds = %52
  %61 = load ptr, ptr %2, align 8, !tbaa !3
  %62 = getelementptr inbounds nuw %struct.Curl_easy, ptr %61, i32 0, i32 11
  %63 = load ptr, ptr %62, align 8, !tbaa !94
  %64 = load ptr, ptr %4, align 8, !tbaa !3
  %65 = call i32 @curl_multi_remove_handle(ptr noundef %63, ptr noundef %64)
  %66 = call i32 @Curl_close(ptr noundef %4)
  br label %67

67:                                               ; preds = %60, %59, %31
  %68 = load i64, ptr %6, align 8, !tbaa !85
  %69 = add i64 %68, 1
  store i64 %69, ptr %6, align 8, !tbaa !85
  br label %19, !llvm.loop !132

70:                                               ; preds = %19
  call void @llvm.lifetime.end.p0(i64 8, ptr %6) #7
  call void @llvm.lifetime.end.p0(i64 8, ptr %5) #7
  call void @llvm.lifetime.end.p0(i64 8, ptr %4) #7
  br label %71

71:                                               ; preds = %70, %13, %1
  call void @llvm.lifetime.end.p0(i64 8, ptr %3) #7
  ret void
}

; Function Attrs: nounwind uwtable
define hidden void @Curl_doh_cleanup(ptr noundef %0) #0 {
  %2 = alloca ptr, align 8
  %3 = alloca ptr, align 8
  store ptr %0, ptr %2, align 8, !tbaa !3
  call void @llvm.lifetime.start.p0(i64 8, ptr %3) #7
  %4 = load ptr, ptr %2, align 8, !tbaa !3
  %5 = getelementptr inbounds nuw %struct.Curl_easy, ptr %4, i32 0, i32 15
  %6 = getelementptr inbounds nuw %struct.SingleRequest, ptr %5, i32 0, i32 24
  %7 = load ptr, ptr %6, align 8, !tbaa !83
  store ptr %7, ptr %3, align 8, !tbaa !84
  %8 = load ptr, ptr %3, align 8, !tbaa !84
  %9 = icmp ne ptr %8, null
  br i1 %9, label %10, label %31

10:                                               ; preds = %1
  %11 = load ptr, ptr %2, align 8, !tbaa !3
  call void @Curl_doh_close(ptr noundef %11)
  %12 = load ptr, ptr %3, align 8, !tbaa !84
  %13 = getelementptr inbounds nuw %struct.doh_probes, ptr %12, i32 0, i32 0
  %14 = load ptr, ptr %13, align 8, !tbaa !93
  call void @curl_slist_free_all(ptr noundef %14)
  %15 = load ptr, ptr %2, align 8, !tbaa !3
  %16 = getelementptr inbounds nuw %struct.Curl_easy, ptr %15, i32 0, i32 15
  %17 = getelementptr inbounds nuw %struct.SingleRequest, ptr %16, i32 0, i32 24
  %18 = load ptr, ptr %17, align 8, !tbaa !83
  %19 = getelementptr inbounds nuw %struct.doh_probes, ptr %18, i32 0, i32 0
  store ptr null, ptr %19, align 8, !tbaa !93
  br label %20

20:                                               ; preds = %10
  %21 = load ptr, ptr @Curl_cfree, align 8, !tbaa !82
  %22 = load ptr, ptr %2, align 8, !tbaa !3
  %23 = getelementptr inbounds nuw %struct.Curl_easy, ptr %22, i32 0, i32 15
  %24 = getelementptr inbounds nuw %struct.SingleRequest, ptr %23, i32 0, i32 24
  %25 = load ptr, ptr %24, align 8, !tbaa !83
  call void %21(ptr noundef %25)
  %26 = load ptr, ptr %2, align 8, !tbaa !3
  %27 = getelementptr inbounds nuw %struct.Curl_easy, ptr %26, i32 0, i32 15
  %28 = getelementptr inbounds nuw %struct.SingleRequest, ptr %27, i32 0, i32 24
  store ptr null, ptr %28, align 8, !tbaa !83
  br label %29

29:                                               ; preds = %20
  br label %30

30:                                               ; preds = %29
  br label %31

31:                                               ; preds = %30, %1
  call void @llvm.lifetime.end.p0(i64 8, ptr %3) #7
  ret void
}